target datalayout = "e-m:e-p270:32:32-p271:32:32-p272:64:64-i64:64-i128:128-f80:128-n8:16:32:64-S128"
target triple = "x86_64-pc-linux-gnu"

@c_b32 = internal global double 0.000000e+00, align 8

; Function Attrs: nounwind uwtable
define double @dlamc3_(ptr noundef %0, ptr noundef %1) #0 {
  %3 = alloca ptr, align 8
  %4 = alloca ptr, align 8
  %5 = alloca double, align 8
  store ptr %0, ptr %3, align 8, !tbaa !14
  store ptr %1, ptr %4, align 8, !tbaa !14
  call void @llvm.lifetime.start.p0(i64 8, ptr %5) #3
  %6 = load ptr, ptr %3, align 8, !tbaa !14
  %7 = load double, ptr %6, align 8, !tbaa !10
  %8 = load ptr, ptr %4, align 8, !tbaa !14
  %9 = load double, ptr %8, align 8, !tbaa !10
  %10 = fadd double %7, %9
  store double %10, ptr %5, align 8, !tbaa !10
  %11 = load double, ptr %5, align 8, !tbaa !10
  call void @llvm.lifetime.end.p0(i64 8, ptr %5) #3
  ret double %11
}

; Function Attrs: nounwind uwtable
define i32 @dlamc5_(ptr noundef %0, ptr noundef %1, ptr noundef %2, ptr noundef %3, ptr noundef %4, ptr noundef %5) #0 {
  %7 = alloca ptr, align 8
  %8 = alloca ptr, align 8
  %9 = alloca ptr, align 8
  %10 = alloca ptr, align 8
  %11 = alloca ptr, align 8
  %12 = alloca ptr, align 8
  %13 = alloca i32, align 4
  %14 = alloca double, align 8
  %15 = alloca i32, align 4
  %16 = alloca double, align 8
  %17 = alloca i32, align 4
  %18 = alloca i32, align 4
  %19 = alloca double, align 8
  %20 = alloca double, align 8
  %21 = alloca i32, align 4
  %22 = alloca double, align 8
  %23 = alloca i32, align 4
  %24 = alloca i32, align 4
  %25 = alloca i32, align 4
  store ptr %0, ptr %7, align 8, !tbaa !12
  store ptr %1, ptr %8, align 8, !tbaa !12
  store ptr %2, ptr %9, align 8, !tbaa !12
  store ptr %3, ptr %10, align 8, !tbaa !12
  store ptr %4, ptr %11, align 8, !tbaa !12
  store ptr %5, ptr %12, align 8, !tbaa !14
  call void @llvm.lifetime.start.p0(i64 4, ptr %13) #3
  call void @llvm.lifetime.start.p0(i64 8, ptr %14) #3
  call void @llvm.lifetime.start.p0(i64 4, ptr %15) #3
  call void @llvm.lifetime.start.p0(i64 8, ptr %16) #3
  call void @llvm.lifetime.start.p0(i64 4, ptr %17) #3
  call void @llvm.lifetime.start.p0(i64 4, ptr %18) #3
  call void @llvm.lifetime.start.p0(i64 8, ptr %19) #3
  call void @llvm.lifetime.start.p0(i64 8, ptr %20) #3
  call void @llvm.lifetime.start.p0(i64 4, ptr %21) #3
  call void @llvm.lifetime.start.p0(i64 8, ptr %22) #3
  call void @llvm.lifetime.start.p0(i64 4, ptr %23) #3
  call void @llvm.lifetime.start.p0(i64 4, ptr %24) #3
  call void @llvm.lifetime.start.p0(i64 4, ptr %25) #3
  store i32 1, ptr %15, align 4, !tbaa !8
  store i32 1, ptr %23, align 4, !tbaa !8
  br label %26

26:                                               ; preds = %34, %6
  %27 = load i32, ptr %15, align 4, !tbaa !8
  %28 = shl i32 %27, 1
  store i32 %28, ptr %25, align 4, !tbaa !8
  %29 = load i32, ptr %25, align 4, !tbaa !8
  %30 = load ptr, ptr %9, align 8, !tbaa !12
  %31 = load i32, ptr %30, align 4, !tbaa !8
  %32 = sub nsw i32 0, %31
  %33 = icmp sle i32 %29, %32
  br i1 %33, label %34, label %38

34:                                               ; preds = %26
  %35 = load i32, ptr %25, align 4, !tbaa !8
  store i32 %35, ptr %15, align 4, !tbaa !8
  %36 = load i32, ptr %23, align 4, !tbaa !8
  %37 = add nsw i32 %36, 1
  store i32 %37, ptr %23, align 4, !tbaa !8
  br label %26

38:                                               ; preds = %26
  %39 = load i32, ptr %15, align 4, !tbaa !8
  %40 = load ptr, ptr %9, align 8, !tbaa !12
  %41 = load i32, ptr %40, align 4, !tbaa !8
  %42 = sub nsw i32 0, %41
  %43 = icmp eq i32 %39, %42
  br i1 %43, label %44, label %46

44:                                               ; preds = %38
  %45 = load i32, ptr %15, align 4, !tbaa !8
  store i32 %45, ptr %17, align 4, !tbaa !8
  br label %50

46:                                               ; preds = %38
  %47 = load i32, ptr %25, align 4, !tbaa !8
  store i32 %47, ptr %17, align 4, !tbaa !8
  %48 = load i32, ptr %23, align 4, !tbaa !8
  %49 = add nsw i32 %48, 1
  store i32 %49, ptr %23, align 4, !tbaa !8
  br label %50

50:                                               ; preds = %46, %44
  %51 = load i32, ptr %17, align 4, !tbaa !8
  %52 = load ptr, ptr %9, align 8, !tbaa !12
  %53 = load i32, ptr %52, align 4, !tbaa !8
  %54 = add nsw i32 %51, %53
  %55 = load i32, ptr %15, align 4, !tbaa !8
  %56 = sub nsw i32 0, %55
  %57 = load ptr, ptr %9, align 8, !tbaa !12
  %58 = load i32, ptr %57, align 4, !tbaa !8
  %59 = sub nsw i32 %56, %58
  %60 = icmp sgt i32 %54, %59
  br i1 %60, label %61, label %64

61:                                               ; preds = %50
  %62 = load i32, ptr %15, align 4, !tbaa !8
  %63 = shl i32 %62, 1
  store i32 %63, ptr %24, align 4, !tbaa !8
  br label %67

64:                                               ; preds = %50
  %65 = load i32, ptr %17, align 4, !tbaa !8
  %66 = shl i32 %65, 1
  store i32 %66, ptr %24, align 4, !tbaa !8
  br label %67

67:                                               ; preds = %64, %61
  %68 = load i32, ptr %24, align 4, !tbaa !8
  %69 = load ptr, ptr %9, align 8, !tbaa !12
  %70 = load i32, ptr %69, align 4, !tbaa !8
  %71 = add nsw i32 %68, %70
  %72 = sub nsw i32 %71, 1
  %73 = load ptr, ptr %11, align 8, !tbaa !12
  store i32 %72, ptr %73, align 4, !tbaa !8
  %74 = load i32, ptr %23, align 4, !tbaa !8
  %75 = add nsw i32 %74, 1
  %76 = load ptr, ptr %8, align 8, !tbaa !12
  %77 = load i32, ptr %76, align 4, !tbaa !8
  %78 = add nsw i32 %75, %77
  store i32 %78, ptr %21, align 4, !tbaa !8
  %79 = load i32, ptr %21, align 4, !tbaa !8
  %80 = srem i32 %79, 2
  %81 = icmp eq i32 %80, 1
  br i1 %81, label %82, label %90

82:                                               ; preds = %67
  %83 = load ptr, ptr %7, align 8, !tbaa !12
  %84 = load i32, ptr %83, align 4, !tbaa !8
  %85 = icmp eq i32 %84, 2
  br i1 %85, label %86, label %90

86:                                               ; preds = %82
  %87 = load ptr, ptr %11, align 8, !tbaa !12
  %88 = load i32, ptr %87, align 4, !tbaa !8
  %89 = add nsw i32 %88, -1
  store i32 %89, ptr %87, align 4, !tbaa !8
  br label %90

90:                                               ; preds = %86, %82, %67
  %91 = load ptr, ptr %10, align 8, !tbaa !12
  %92 = load i32, ptr %91, align 4, !tbaa !8
  %93 = icmp ne i32 %92, 0
  br i1 %93, label %94, label %98

94:                                               ; preds = %90
  %95 = load ptr, ptr %11, align 8, !tbaa !12
  %96 = load i32, ptr %95, align 4, !tbaa !8
  %97 = add nsw i32 %96, -1
  store i32 %97, ptr %95, align 4, !tbaa !8
  br label %98

98:                                               ; preds = %94, %90
  %99 = load ptr, ptr %7, align 8, !tbaa !12
  %100 = load i32, ptr %99, align 4, !tbaa !8
  %101 = sitofp i32 %100 to double
  %102 = fdiv double 1.000000e+00, %101
  store double %102, ptr %22, align 8, !tbaa !10
  %103 = load ptr, ptr %7, align 8, !tbaa !12
  %104 = load i32, ptr %103, align 4, !tbaa !8
  %105 = sitofp i32 %104 to double
  %106 = fsub double %105, 1.000000e+00
  store double %106, ptr %20, align 8, !tbaa !10
  store double 0.000000e+00, ptr %19, align 8, !tbaa !10
  %107 = load ptr, ptr %8, align 8, !tbaa !12
  %108 = load i32, ptr %107, align 4, !tbaa !8
  store i32 %108, ptr %13, align 4, !tbaa !8
  store i32 1, ptr %18, align 4, !tbaa !8
  br label %109

109:                                              ; preds = %123, %98
  %110 = load i32, ptr %18, align 4, !tbaa !8
  %111 = load i32, ptr %13, align 4, !tbaa !8
  %112 = icmp sle i32 %110, %111
  br i1 %112, label %113, label %126

113:                                              ; preds = %109
  %114 = load double, ptr %22, align 8, !tbaa !10
  %115 = load double, ptr %20, align 8, !tbaa !10
  %116 = fmul double %115, %114
  store double %116, ptr %20, align 8, !tbaa !10
  %117 = load double, ptr %19, align 8, !tbaa !10
  %118 = fcmp olt double %117, 1.000000e+00
  br i1 %118, label %119, label %121

119:                                              ; preds = %113
  %120 = load double, ptr %19, align 8, !tbaa !10
  store double %120, ptr %16, align 8, !tbaa !10
  br label %121

121:                                              ; preds = %119, %113
  %122 = call double @dlamc3_(ptr noundef %19, ptr noundef %20)
  store double %122, ptr %19, align 8, !tbaa !10
  br label %123

123:                                              ; preds = %121
  %124 = load i32, ptr %18, align 4, !tbaa !8
  %125 = add nsw i32 %124, 1
  store i32 %125, ptr %18, align 4, !tbaa !8
  br label %109, !llvm.loop !23

126:                                              ; preds = %109
  %127 = load double, ptr %19, align 8, !tbaa !10
  %128 = fcmp oge double %127, 1.000000e+00
  br i1 %128, label %129, label %131

129:                                              ; preds = %126
  %130 = load double, ptr %16, align 8, !tbaa !10
  store double %130, ptr %19, align 8, !tbaa !10
  br label %131

131:                                              ; preds = %129, %126
  %132 = load ptr, ptr %11, align 8, !tbaa !12
  %133 = load i32, ptr %132, align 4, !tbaa !8
  store i32 %133, ptr %13, align 4, !tbaa !8
  store i32 1, ptr %18, align 4, !tbaa !8
  br label %134

134:                                              ; preds = %145, %131
  %135 = load i32, ptr %18, align 4, !tbaa !8
  %136 = load i32, ptr %13, align 4, !tbaa !8
  %137 = icmp sle i32 %135, %136
  br i1 %137, label %138, label %148

138:                                              ; preds = %134
  %139 = load double, ptr %19, align 8, !tbaa !10
  %140 = load ptr, ptr %7, align 8, !tbaa !12
  %141 = load i32, ptr %140, align 4, !tbaa !8
  %142 = sitofp i32 %141 to double
  %143 = fmul double %139, %142
  store double %143, ptr %14, align 8, !tbaa !10
  %144 = call double @dlamc3_(ptr noundef %14, ptr noundef @c_b32)
  store double %144, ptr %19, align 8, !tbaa !10
  br label %145

145:                                              ; preds = %138
  %146 = load i32, ptr %18, align 4, !tbaa !8
  %147 = add nsw i32 %146, 1
  store i32 %147, ptr %18, align 4, !tbaa !8
  br label %134, !llvm.loop !24

148:                                              ; preds = %134
  %149 = load double, ptr %19, align 8, !tbaa !10
  %150 = load ptr, ptr %12, align 8, !tbaa !14
  store double %149, ptr %150, align 8, !tbaa !10
  call void @llvm.lifetime.end.p0(i64 4, ptr %25) #3
  call void @llvm.lifetime.end.p0(i64 4, ptr %24) #3
  call void @llvm.lifetime.end.p0(i64 4, ptr %23) #3
  call void @llvm.lifetime.end.p0(i64 8, ptr %22) #3
  call void @llvm.lifetime.end.p0(i64 4, ptr %21) #3
  call void @llvm.lifetime.end.p0(i64 8, ptr %20) #3
  call void @llvm.lifetime.end.p0(i64 8, ptr %19) #3
  call void @llvm.lifetime.end.p0(i64 4, ptr %18) #3
  call void @llvm.lifetime.end.p0(i64 4, ptr %17) #3
  call void @llvm.lifetime.end.p0(i64 8, ptr %16) #3
  call void @llvm.lifetime.end.p0(i64 4, ptr %15) #3
  call void @llvm.lifetime.end.p0(i64 8, ptr %14) #3
  call void @llvm.lifetime.end.p0(i64 4, ptr %13) #3
  ret i32 0
}