; Function Attrs: nofree norecurse nosync nounwind memory(read, argmem: readwrite, inaccessiblemem: none) uwtable
define noundef i32 @dlamc5_(ptr noundef readonly captures(none) %0, ptr noundef readonly captures(none) %1, ptr noundef readonly captures(none) %2, ptr noundef readonly captures(none) %3, ptr noundef writeonly captures(none) %4, ptr noundef writeonly captures(none) %5) local_unnamed_addr #6 {
  %7 = load i32, ptr %2, align 4, !tbaa !3
  %8 = sub nsw i32 0, %7
  br label %9

9:                                                ; preds = %9, %6
  %.040 = phi i32 [ 1, %6 ], [ %10, %9 ]
  %.039 = phi i32 [ 1, %6 ], [ %11, %9 ]
  %10 = shl i32 %.040, 1
  %.not = icmp sgt i32 %10, %8
  %11 = add nuw i32 %.039, 1
  br i1 %.not, label %12, label %9

12:                                               ; preds = %9
  %13 = icmp ne i32 %.040, %8
  %.045 = select i1 %13, i32 %10, i32 %.040
  %14 = zext i1 %13 to i32
  %15 = add nsw i32 %.045, %7
  %16 = add i32 %.040, %7
  %17 = sub i32 0, %16
  %18 = icmp sgt i32 %15, %17
  %19 = shl i32 %.045, 1
  %.0 = select i1 %18, i32 %10, i32 %19
  %20 = add nsw i32 %.0, %7
  %21 = add nsw i32 %20, -1
  store i32 %21, ptr %4, align 4, !tbaa !3
  %22 = load i32, ptr %1, align 4, !tbaa !3
  %23 = add i32 %11, %14
  %24 = add nsw i32 %23, %22
  %25 = and i32 %24, -2147483647
  %26 = icmp eq i32 %25, 1
  br i1 %26, label %27, label %32

27:                                               ; preds = %12
  %28 = load i32, ptr %0, align 4, !tbaa !3
  %29 = icmp eq i32 %28, 2
  br i1 %29, label %30, label %32

30:                                               ; preds = %27
  %31 = add nsw i32 %20, -2
  store i32 %31, ptr %4, align 4, !tbaa !3
  br label %32

32:                                               ; preds = %30, %27, %12
  %33 = phi i32 [ %31, %30 ], [ %21, %27 ], [ %21, %12 ]
  %34 = load i32, ptr %3, align 4, !tbaa !3
  %.not50 = icmp eq i32 %34, 0
  br i1 %.not50, label %37, label %35

35:                                               ; preds = %32
  %36 = add nsw i32 %33, -1
  store i32 %36, ptr %4, align 4, !tbaa !3
  br label %37

37:                                               ; preds = %35, %32
  %38 = phi i32 [ %36, %35 ], [ %33, %32 ]
  %39 = load i32, ptr %0, align 4, !tbaa !3
  %40 = sitofp i32 %39 to double
  %41 = fdiv double 1.000000e+00, %40
  %42 = load i32, ptr %1, align 4, !tbaa !3
  %.not5165 = icmp slt i32 %42, 1
  br i1 %.not5165, label %._crit_edge, label %.lr.ph.preheader

.lr.ph.preheader:                                 ; preds = %37
  %43 = fadd double %40, -1.000000e+00
  br label %.lr.ph

.lr.ph:                                           ; preds = %.lr.ph.preheader, %.lr.ph
  %.04169 = phi double [ %.142, %.lr.ph ], [ undef, %.lr.ph.preheader ]
  %.04368 = phi i32 [ %47, %.lr.ph ], [ 1, %.lr.ph.preheader ]
  %.06067 = phi double [ %44, %.lr.ph ], [ %43, %.lr.ph.preheader ]
  %.06166 = phi double [ %46, %.lr.ph ], [ 0.000000e+00, %.lr.ph.preheader ]
  %44 = fmul double %41, %.06067
  %45 = fcmp olt double %.06166, 1.000000e+00
  %.142 = select i1 %45, double %.06166, double %.04169
  %46 = fadd double %.06166, %44
  %47 = add nuw i32 %.04368, 1
  %exitcond.not = icmp eq i32 %.04368, %42
  br i1 %exitcond.not, label %._crit_edge, label %.lr.ph, !llvm.loop !14

._crit_edge:                                      ; preds = %.lr.ph, %37
  %.061.lcssa = phi double [ 0.000000e+00, %37 ], [ %46, %.lr.ph ]
  %.041.lcssa = phi double [ undef, %37 ], [ %.142, %.lr.ph ]
  %48 = fcmp ult double %.061.lcssa, 1.000000e+00
  %.162 = select i1 %48, double %.061.lcssa, double %.041.lcssa
  %.not5271 = icmp slt i32 %38, 1
  br i1 %.not5271, label %._crit_edge76, label %.lr.ph75

.lr.ph75:                                         ; preds = %._crit_edge, %.lr.ph75
  %.14473 = phi i32 [ %51, %.lr.ph75 ], [ 1, %._crit_edge ]
  %.272 = phi double [ %50, %.lr.ph75 ], [ %.162, %._crit_edge ]
  %49 = fmul double %.272, %40
  %50 = fadd double %49, 0.000000e+00
  %51 = add nuw i32 %.14473, 1
  %exitcond80.not = icmp eq i32 %.14473, %38
  br i1 %exitcond80.not, label %._crit_edge76, label %.lr.ph75, !llvm.loop !15

._crit_edge76:                                    ; preds = %.lr.ph75, %._crit_edge
  %.2.lcssa = phi double [ %.162, %._crit_edge ], [ %50, %.lr.ph75 ]
  store double %.2.lcssa, ptr %5, align 8, !tbaa !7
  ret i32 0
}